; Function Attrs: nounwind uwtable
define dso_local void @sapi_unregister_post_entry(ptr noundef readonly captures(none) %0) local_unnamed_addr #0 {
  %2 = load i8, ptr getelementptr inbounds nuw (i8, ptr @sapi_globals, i64 436), align 4, !tbaa !123, !range !90, !noundef !80
  %3 = trunc nuw i8 %2 to i1
  %4 = load ptr, ptr getelementptr inbounds nuw (i8, ptr @executor_globals, i64 512), align 8
  %5 = icmp ne ptr %4, null
  %or.cond = select i1 %3, i1 %5, i1 false
  br i1 %or.cond, label %12, label %6

6:                                                ; preds = %1
  %7 = load ptr, ptr %0, align 8, !tbaa !146
  %8 = getelementptr inbounds nuw i8, ptr %0, i64 8
  %9 = load i32, ptr %8, align 8, !tbaa !147
  %10 = zext i32 %9 to i64
  %11 = tail call i32 @zend_hash_str_del(ptr noundef nonnull getelementptr inbounds nuw (i8, ptr @sapi_globals, i64 448), ptr noundef %7, i64 noundef %10) #19
  br label %12

12:                                               ; preds = %1, %6
  ret void
}